target datalayout = "e-m:e-p270:32:32-p271:32:32-p272:64:64-i64:64-i128:128-f80:128-n8:16:32:64-S128"
target triple = "x86_64-pc-linux-gnu"

%struct._structmodulestate = type { ptr, ptr, ptr, ptr }
%struct._formatdef = type { i8, i64, i64, ptr, ptr }

@PyExc_OverflowError = external global ptr, align 8
@.str.51 = private unnamed_addr constant [40 x i8] c"'%c' format requires 0 <= number <= %zu\00", align 1
@.str.52 = private unnamed_addr constant [42 x i8] c"'%c' format requires %zd <= number <= %zd\00", align 1

; Function Attrs: nounwind uwtable
define internal i32 @_range_error(ptr noundef %0, ptr noundef %1, i32 noundef %2) #0 {
  %4 = alloca ptr, align 8
  %5 = alloca ptr, align 8
  %6 = alloca i32, align 4
  %7 = alloca i64, align 8
  %8 = alloca i64, align 8
  store ptr %0, ptr %4, align 8, !tbaa !8
  store ptr %1, ptr %5, align 8, !tbaa !49
  store i32 %2, ptr %6, align 4, !tbaa !11
  call void @llvm.lifetime.start.p0(i64 8, ptr %7) #8
  %9 = load ptr, ptr %5, align 8, !tbaa !49
  %10 = getelementptr inbounds nuw %struct._formatdef, ptr %9, i32 0, i32 1
  %11 = load i64, ptr %10, align 8, !tbaa !75
  %12 = sub i64 8, %11
  %13 = mul i64 %12, 8
  %14 = lshr i64 -1, %13
  store i64 %14, ptr %7, align 8, !tbaa !18
  %15 = load i32, ptr %6, align 4, !tbaa !11
  %16 = icmp ne i32 %15, 0
  br i1 %16, label %17, label %27

17:                                               ; preds = %3
  %18 = load ptr, ptr %4, align 8, !tbaa !8
  %19 = getelementptr inbounds nuw %struct._structmodulestate, ptr %18, i32 0, i32 3
  %20 = load ptr, ptr %19, align 8, !tbaa !15
  %21 = load ptr, ptr %5, align 8, !tbaa !49
  %22 = getelementptr inbounds nuw %struct._formatdef, ptr %21, i32 0, i32 0
  %23 = load i8, ptr %22, align 8, !tbaa !52
  %24 = sext i8 %23 to i32
  %25 = load i64, ptr %7, align 8, !tbaa !18
  %26 = call ptr (ptr, ptr, ...) @PyErr_Format(ptr noundef %20, ptr noundef @.str.51, i32 noundef %24, i64 noundef %25)
  br label %41

27:                                               ; preds = %3
  call void @llvm.lifetime.start.p0(i64 8, ptr %8) #8
  %28 = load i64, ptr %7, align 8, !tbaa !18
  %29 = lshr i64 %28, 1
  store i64 %29, ptr %8, align 8, !tbaa !18
  %30 = load ptr, ptr %4, align 8, !tbaa !8
  %31 = getelementptr inbounds nuw %struct._structmodulestate, ptr %30, i32 0, i32 3
  %32 = load ptr, ptr %31, align 8, !tbaa !15
  %33 = load ptr, ptr %5, align 8, !tbaa !49
  %34 = getelementptr inbounds nuw %struct._formatdef, ptr %33, i32 0, i32 0
  %35 = load i8, ptr %34, align 8, !tbaa !52
  %36 = sext i8 %35 to i32
  %37 = load i64, ptr %8, align 8, !tbaa !18
  %38 = xor i64 %37, -1
  %39 = load i64, ptr %8, align 8, !tbaa !18
  %40 = call ptr (ptr, ptr, ...) @PyErr_Format(ptr noundef %32, ptr noundef @.str.52, i32 noundef %36, i64 noundef %38, i64 noundef %39)
  call void @llvm.lifetime.end.p0(i64 8, ptr %8) #8
  br label %41

41:                                               ; preds = %27, %17
  call void @llvm.lifetime.end.p0(i64 8, ptr %7) #8
  ret i32 -1
}

; Function Attrs: nounwind uwtable
define internal i32 @bp_uint(ptr noundef %0, ptr noundef %1, ptr noundef %2, ptr noundef %3) #0 {
  %5 = alloca i32, align 4
  %6 = alloca ptr, align 8
  %7 = alloca ptr, align 8
  %8 = alloca ptr, align 8
  %9 = alloca ptr, align 8
  %10 = alloca i64, align 8
  %11 = alloca i64, align 8
  %12 = alloca ptr, align 8
  %13 = alloca i32, align 4
  %14 = alloca i64, align 8
  store ptr %0, ptr %6, align 8, !tbaa !8
  store ptr %1, ptr %7, align 8, !tbaa !43
  store ptr %2, ptr %8, align 8, !tbaa !3
  store ptr %3, ptr %9, align 8, !tbaa !49
  call void @llvm.lifetime.start.p0(i64 8, ptr %10) #8
  call void @llvm.lifetime.start.p0(i64 8, ptr %11) #8
  call void @llvm.lifetime.start.p0(i64 8, ptr %12) #8
  %15 = load ptr, ptr %7, align 8, !tbaa !43
  store ptr %15, ptr %12, align 8, !tbaa !43
  %16 = load ptr, ptr %6, align 8, !tbaa !8
  %17 = load ptr, ptr %8, align 8, !tbaa !3
  %18 = call i32 @get_ulong(ptr noundef %16, ptr noundef %17, ptr noundef %10)
  %19 = icmp slt i32 %18, 0
  br i1 %19, label %20, label %29

20:                                               ; preds = %4
  %21 = load ptr, ptr @PyExc_OverflowError, align 8, !tbaa !3
  %22 = call i32 @PyErr_ExceptionMatches(ptr noundef %21)
  %23 = icmp ne i32 %22, 0
  br i1 %23, label %24, label %28

24:                                               ; preds = %20
  %25 = load ptr, ptr %6, align 8, !tbaa !8
  %26 = load ptr, ptr %9, align 8, !tbaa !49
  %27 = call i32 @_range_error(ptr noundef %25, ptr noundef %26, i32 noundef 1)
  store i32 %27, ptr %5, align 4
  store i32 1, ptr %13, align 4
  br label %66

28:                                               ; preds = %20
  store i32 -1, ptr %5, align 4
  store i32 1, ptr %13, align 4
  br label %66

29:                                               ; preds = %4
  %30 = load ptr, ptr %9, align 8, !tbaa !49
  %31 = getelementptr inbounds nuw %struct._formatdef, ptr %30, i32 0, i32 1
  %32 = load i64, ptr %31, align 8, !tbaa !75
  store i64 %32, ptr %11, align 8, !tbaa !18
  %33 = load i64, ptr %11, align 8, !tbaa !18
  %34 = icmp ne i64 %33, 8
  br i1 %34, label %35, label %51

35:                                               ; preds = %29
  call void @llvm.lifetime.start.p0(i64 8, ptr %14) #8
  store i64 1, ptr %14, align 8, !tbaa !18
  %36 = load i64, ptr %11, align 8, !tbaa !18
  %37 = mul i64 %36, 8
  %38 = load i64, ptr %14, align 8, !tbaa !18
  %39 = shl i64 %38, %37
  store i64 %39, ptr %14, align 8, !tbaa !18
  %40 = load i64, ptr %10, align 8, !tbaa !18
  %41 = load i64, ptr %14, align 8, !tbaa !18
  %42 = icmp uge i64 %40, %41
  br i1 %42, label %43, label %47

43:                                               ; preds = %35
  %44 = load ptr, ptr %6, align 8, !tbaa !8
  %45 = load ptr, ptr %9, align 8, !tbaa !49
  %46 = call i32 @_range_error(ptr noundef %44, ptr noundef %45, i32 noundef 1)
  store i32 %46, ptr %5, align 4
  store i32 1, ptr %13, align 4
  br label %48

47:                                               ; preds = %35
  store i32 0, ptr %13, align 4
  br label %48

48:                                               ; preds = %47, %43
  call void @llvm.lifetime.end.p0(i64 8, ptr %14) #8
  %49 = load i32, ptr %13, align 4
  switch i32 %49, label %66 [
    i32 0, label %50
  ]

50:                                               ; preds = %48
  br label %51

51:                                               ; preds = %50, %29
  br label %52

52:                                               ; preds = %62, %51
  %53 = load i64, ptr %10, align 8, !tbaa !18
  %54 = and i64 %53, 255
  %55 = trunc i64 %54 to i8
  %56 = load ptr, ptr %12, align 8, !tbaa !43
  %57 = load i64, ptr %11, align 8, !tbaa !18
  %58 = add i64 %57, -1
  store i64 %58, ptr %11, align 8, !tbaa !18
  %59 = getelementptr i8, ptr %56, i64 %58
  store i8 %55, ptr %59, align 1, !tbaa !32
  %60 = load i64, ptr %10, align 8, !tbaa !18
  %61 = lshr i64 %60, 8
  store i64 %61, ptr %10, align 8, !tbaa !18
  br label %62

62:                                               ; preds = %52
  %63 = load i64, ptr %11, align 8, !tbaa !18
  %64 = icmp sgt i64 %63, 0
  br i1 %64, label %52, label %65, !llvm.loop !93

65:                                               ; preds = %62
  store i32 0, ptr %5, align 4
  store i32 1, ptr %13, align 4
  br label %66

66:                                               ; preds = %65, %48, %28, %24
  call void @llvm.lifetime.end.p0(i64 8, ptr %12) #8
  call void @llvm.lifetime.end.p0(i64 8, ptr %11) #8
  call void @llvm.lifetime.end.p0(i64 8, ptr %10) #8
  %67 = load i32, ptr %5, align 4
  ret i32 %67
}